target datalayout = "e-m:e-p270:32:32-p271:32:32-p272:64:64-i64:64-i128:128-f80:128-n8:16:32:64-S128"
target triple = "x86_64-pc-linux-gnu"

%struct._priv_exr_context_t = type { i8, i8, i8, i8, i8, i8, i8, i8, %struct.exr_attr_string_t, %struct.exr_attr_string_t, ptr, ptr, ptr, ptr, ptr, ptr, ptr, ptr, i32, i32, i32, i32, i32, float, ptr, ptr, ptr, i64, ptr, ptr, i64, i32, i32, i32, i32, %struct._priv_exr_part_t, ptr, ptr, %struct.exr_attribute_list, %union.pthread_mutex_t, i8, i8, [2 x i8], i32 }
%struct.exr_attr_string_t = type { i32, i32, ptr }
%struct._priv_exr_part_t = type { i32, i32, %struct.exr_attribute_list, ptr, ptr, ptr, ptr, ptr, ptr, ptr, ptr, ptr, ptr, ptr, ptr, ptr, ptr, %struct.exr_attr_box2i_t, %struct.exr_attr_box2i_t, i32, i32, i32, float, i32, i32, ptr, ptr, ptr, ptr, i64, i16, i16, i32, i64, i64 }
%struct.exr_attr_box2i_t = type { %struct.exr_attr_v2i_t, %struct.exr_attr_v2i_t }
%struct.exr_attr_v2i_t = type { i32, i32 }
%struct.exr_attribute_list = type { i32, i32, ptr, ptr }
%union.pthread_mutex_t = type { %struct.__pthread_mutex_s }
%struct.__pthread_mutex_s = type { i32, i32, i32, i32, i32, i16, i16, %struct.__pthread_internal_list }
%struct.__pthread_internal_list = type { ptr, ptr }

@.str.22 = private unnamed_addr constant [36 x i8] c"Unable to rename temporary file: %s\00", align 1

; Function Attrs: nounwind uwtable
define internal i32 @finalize_write(ptr noundef %0, i32 noundef %1) #0 {
  %3 = alloca i32, align 4
  %4 = alloca ptr, align 8
  %5 = alloca i32, align 4
  %6 = alloca i32, align 4
  %7 = alloca i32, align 4
  %8 = alloca i32, align 4
  store ptr %0, ptr %4, align 8, !tbaa !12
  store i32 %1, ptr %5, align 4, !tbaa !10
  call void @llvm.lifetime.start.p0(i64 4, ptr %6) #9
  store i32 0, ptr %6, align 4, !tbaa !10
  %9 = load i32, ptr %5, align 4, !tbaa !10
  %10 = icmp ne i32 %9, 0
  br i1 %10, label %11, label %35

11:                                               ; preds = %2
  %12 = load ptr, ptr %4, align 8, !tbaa !12
  %13 = getelementptr inbounds nuw %struct._priv_exr_context_t, ptr %12, i32 0, i32 26
  %14 = load ptr, ptr %13, align 8, !tbaa !61
  %15 = icmp eq ptr %14, @default_shutdown
  br i1 %15, label %16, label %35

16:                                               ; preds = %11
  %17 = load ptr, ptr %4, align 8, !tbaa !12
  %18 = getelementptr inbounds nuw %struct._priv_exr_context_t, ptr %17, i32 0, i32 9
  %19 = getelementptr inbounds nuw %struct.exr_attr_string_t, ptr %18, i32 0, i32 2
  %20 = load ptr, ptr %19, align 8, !tbaa !67
  %21 = icmp ne ptr %20, null
  br i1 %21, label %22, label %28

22:                                               ; preds = %16
  %23 = load ptr, ptr %4, align 8, !tbaa !12
  %24 = getelementptr inbounds nuw %struct._priv_exr_context_t, ptr %23, i32 0, i32 9
  %25 = getelementptr inbounds nuw %struct.exr_attr_string_t, ptr %24, i32 0, i32 2
  %26 = load ptr, ptr %25, align 8, !tbaa !67
  %27 = call i32 @unlink(ptr noundef %26) #9
  br label %34

28:                                               ; preds = %16
  %29 = load ptr, ptr %4, align 8, !tbaa !12
  %30 = getelementptr inbounds nuw %struct._priv_exr_context_t, ptr %29, i32 0, i32 8
  %31 = getelementptr inbounds nuw %struct.exr_attr_string_t, ptr %30, i32 0, i32 2
  %32 = load ptr, ptr %31, align 8, !tbaa !62
  %33 = call i32 @unlink(ptr noundef %32) #9
  br label %34

34:                                               ; preds = %28, %22
  br label %35

35:                                               ; preds = %34, %11, %2
  %36 = load i32, ptr %5, align 4, !tbaa !10
  %37 = icmp ne i32 %36, 0
  br i1 %37, label %68, label %38

38:                                               ; preds = %35
  %39 = load ptr, ptr %4, align 8, !tbaa !12
  %40 = getelementptr inbounds nuw %struct._priv_exr_context_t, ptr %39, i32 0, i32 9
  %41 = getelementptr inbounds nuw %struct.exr_attr_string_t, ptr %40, i32 0, i32 2
  %42 = load ptr, ptr %41, align 8, !tbaa !67
  %43 = icmp ne ptr %42, null
  br i1 %43, label %44, label %68

44:                                               ; preds = %38
  call void @llvm.lifetime.start.p0(i64 4, ptr %7) #9
  %45 = load ptr, ptr %4, align 8, !tbaa !12
  %46 = getelementptr inbounds nuw %struct._priv_exr_context_t, ptr %45, i32 0, i32 9
  %47 = getelementptr inbounds nuw %struct.exr_attr_string_t, ptr %46, i32 0, i32 2
  %48 = load ptr, ptr %47, align 8, !tbaa !67
  %49 = load ptr, ptr %4, align 8, !tbaa !12
  %50 = getelementptr inbounds nuw %struct._priv_exr_context_t, ptr %49, i32 0, i32 8
  %51 = getelementptr inbounds nuw %struct.exr_attr_string_t, ptr %50, i32 0, i32 2
  %52 = load ptr, ptr %51, align 8, !tbaa !62
  %53 = call i32 @rename(ptr noundef %48, ptr noundef %52) #9
  store i32 %53, ptr %7, align 4, !tbaa !10
  %54 = load i32, ptr %7, align 4, !tbaa !10
  %55 = icmp slt i32 %54, 0
  br i1 %55, label %56, label %64

56:                                               ; preds = %44
  %57 = load ptr, ptr %4, align 8, !tbaa !12
  %58 = getelementptr inbounds nuw %struct._priv_exr_context_t, ptr %57, i32 0, i32 14
  %59 = load ptr, ptr %58, align 8, !tbaa !52
  %60 = load ptr, ptr %4, align 8, !tbaa !12
  %61 = load i32, ptr %6, align 4, !tbaa !10
  %62 = call ptr @strerror(i32 noundef %61) #9
  %63 = call i32 (ptr, i32, ptr, ...) %59(ptr noundef %60, i32 noundef 5, ptr noundef @.str.22, ptr noundef %62)
  store i32 %63, ptr %3, align 4
  store i32 1, ptr %8, align 4
  br label %65

64:                                               ; preds = %44
  store i32 0, ptr %8, align 4
  br label %65

65:                                               ; preds = %64, %56
  call void @llvm.lifetime.end.p0(i64 4, ptr %7) #9
  %66 = load i32, ptr %8, align 4
  switch i32 %66, label %70 [
    i32 0, label %67
  ]

67:                                               ; preds = %65
  br label %68

68:                                               ; preds = %67, %38, %35
  %69 = load i32, ptr %6, align 4, !tbaa !10
  store i32 %69, ptr %3, align 4
  store i32 1, ptr %8, align 4
  br label %70

70:                                               ; preds = %68, %65
  call void @llvm.lifetime.end.p0(i64 4, ptr %6) #9
  %71 = load i32, ptr %3, align 4
  ret i32 %71
}

; Function Attrs: nounwind uwtable
define i32 @exr_finish(ptr noundef %0) #0 {
  %2 = alloca i32, align 4
  %3 = alloca ptr, align 8
  %4 = alloca ptr, align 8
  %5 = alloca i32, align 4
  %6 = alloca i32, align 4
  %7 = alloca i32, align 4
  store ptr %0, ptr %3, align 8, !tbaa !64
  call void @llvm.lifetime.start.p0(i64 8, ptr %4) #9
  call void @llvm.lifetime.start.p0(i64 4, ptr %5) #9
  store i32 0, ptr %5, align 4, !tbaa !10
  %8 = load ptr, ptr %3, align 8, !tbaa !64
  %9 = icmp ne ptr %8, null
  br i1 %9, label %11, label %10

10:                                               ; preds = %1
  store i32 2, ptr %2, align 4
  store i32 1, ptr %6, align 4
  br label %64

11:                                               ; preds = %1
  %12 = load ptr, ptr %3, align 8, !tbaa !64
  %13 = load ptr, ptr %12, align 8, !tbaa !12
  store ptr %13, ptr %4, align 8, !tbaa !12
  %14 = load ptr, ptr %4, align 8, !tbaa !12
  %15 = icmp ne ptr %14, null
  br i1 %15, label %16, label %61

16:                                               ; preds = %11
  call void @llvm.lifetime.start.p0(i64 4, ptr %7) #9
  store i32 0, ptr %7, align 4, !tbaa !10
  %17 = load ptr, ptr %4, align 8, !tbaa !12
  %18 = getelementptr inbounds nuw %struct._priv_exr_context_t, ptr %17, i32 0, i32 0
  %19 = load i8, ptr %18, align 8, !tbaa !66
  %20 = zext i8 %19 to i32
  %21 = icmp eq i32 %20, 1
  br i1 %21, label %28, label %22

22:                                               ; preds = %16
  %23 = load ptr, ptr %4, align 8, !tbaa !12
  %24 = getelementptr inbounds nuw %struct._priv_exr_context_t, ptr %23, i32 0, i32 0
  %25 = load i8, ptr %24, align 8, !tbaa !66
  %26 = zext i8 %25 to i32
  %27 = icmp eq i32 %26, 3
  br i1 %27, label %28, label %29

28:                                               ; preds = %22, %16
  store i32 1, ptr %7, align 4, !tbaa !10
  br label %29

29:                                               ; preds = %28, %22
  %30 = load ptr, ptr %4, align 8, !tbaa !12
  %31 = getelementptr inbounds nuw %struct._priv_exr_context_t, ptr %30, i32 0, i32 0
  %32 = load i8, ptr %31, align 8, !tbaa !66
  %33 = zext i8 %32 to i32
  %34 = icmp ne i32 %33, 0
  br i1 %34, label %35, label %45

35:                                               ; preds = %29
  %36 = load ptr, ptr %4, align 8, !tbaa !12
  %37 = getelementptr inbounds nuw %struct._priv_exr_context_t, ptr %36, i32 0, i32 0
  %38 = load i8, ptr %37, align 8, !tbaa !66
  %39 = zext i8 %38 to i32
  %40 = icmp ne i32 %39, 4
  br i1 %40, label %41, label %45

41:                                               ; preds = %35
  %42 = load ptr, ptr %4, align 8, !tbaa !12
  %43 = load i32, ptr %7, align 4, !tbaa !10
  %44 = call i32 @finalize_write(ptr noundef %42, i32 noundef %43)
  store i32 %44, ptr %5, align 4, !tbaa !10
  br label %45

45:                                               ; preds = %41, %35, %29
  %46 = load ptr, ptr %4, align 8, !tbaa !12
  %47 = getelementptr inbounds nuw %struct._priv_exr_context_t, ptr %46, i32 0, i32 26
  %48 = load ptr, ptr %47, align 8, !tbaa !61
  %49 = icmp ne ptr %48, null
  br i1 %49, label %50, label %59

50:                                               ; preds = %45
  %51 = load ptr, ptr %4, align 8, !tbaa !12
  %52 = getelementptr inbounds nuw %struct._priv_exr_context_t, ptr %51, i32 0, i32 26
  %53 = load ptr, ptr %52, align 8, !tbaa !61
  %54 = load ptr, ptr %4, align 8, !tbaa !12
  %55 = load ptr, ptr %4, align 8, !tbaa !12
  %56 = getelementptr inbounds nuw %struct._priv_exr_context_t, ptr %55, i32 0, i32 25
  %57 = load ptr, ptr %56, align 8, !tbaa !51
  %58 = load i32, ptr %7, align 4, !tbaa !10
  call void %53(ptr noundef %54, ptr noundef %57, i32 noundef %58)
  br label %59

59:                                               ; preds = %50, %45
  %60 = load ptr, ptr %4, align 8, !tbaa !12
  call void @internal_exr_destroy_context(ptr noundef %60)
  call void @llvm.lifetime.end.p0(i64 4, ptr %7) #9
  br label %61

61:                                               ; preds = %59, %11
  %62 = load ptr, ptr %3, align 8, !tbaa !64
  store ptr null, ptr %62, align 8, !tbaa !12
  %63 = load i32, ptr %5, align 4, !tbaa !10
  store i32 %63, ptr %2, align 4
  store i32 1, ptr %6, align 4
  br label %64

64:                                               ; preds = %61, %10
  call void @llvm.lifetime.end.p0(i64 4, ptr %5) #9
  call void @llvm.lifetime.end.p0(i64 8, ptr %4) #9
  %65 = load i32, ptr %2, align 4
  ret i32 %65
}