; Function Attrs: nounwind uwtable
define i32 @exr_finish(ptr noundef %0) local_unnamed_addr #0 {
  %.not = icmp eq ptr %0, null
  br i1 %.not, label %41, label %2

2:                                                ; preds = %1
  %3 = load ptr, ptr %0, align 8, !tbaa !3
  %.not24 = icmp eq ptr %3, null
  br i1 %.not24, label %40, label %4

4:                                                ; preds = %2
  %5 = load i8, ptr %3, align 8, !tbaa !56
  %6 = add i8 %5, -1
  %switch.and = and i8 %6, -3
  %switch.selectcmp = icmp eq i8 %switch.and, 0
  %7 = zext i1 %switch.selectcmp to i32
  switch i8 %5, label %8 [
    i8 0, label %finalize_write.exit
    i8 4, label %finalize_write.exit
  ]

8:                                                ; preds = %4
  br i1 %switch.selectcmp, label %9, label %.critedge.i

9:                                                ; preds = %8
  %10 = getelementptr inbounds nuw i8, ptr %3, i64 144
  %11 = load ptr, ptr %10, align 8, !tbaa !47
  %12 = icmp eq ptr %11, @default_shutdown
  br i1 %12, label %13, label %finalize_write.exit

13:                                               ; preds = %9
  %14 = getelementptr inbounds nuw i8, ptr %3, i64 32
  %15 = load ptr, ptr %14, align 8, !tbaa !57
  %.not18.i = icmp eq ptr %15, null
  br i1 %.not18.i, label %18, label %16

16:                                               ; preds = %13
  %17 = tail call i32 @unlink(ptr noundef nonnull %15) #13
  br label %finalize_write.exit

18:                                               ; preds = %13
  %19 = getelementptr inbounds nuw i8, ptr %3, i64 16
  %20 = load ptr, ptr %19, align 8, !tbaa !49
  %21 = tail call i32 @unlink(ptr noundef %20) #13
  br label %finalize_write.exit

.critedge.i:                                      ; preds = %8
  %22 = getelementptr inbounds nuw i8, ptr %3, i64 32
  %23 = load ptr, ptr %22, align 8, !tbaa !57
  %.not19.i = icmp eq ptr %23, null
  br i1 %.not19.i, label %finalize_write.exit, label %24

24:                                               ; preds = %.critedge.i
  %25 = getelementptr inbounds nuw i8, ptr %3, i64 16
  %26 = load ptr, ptr %25, align 8, !tbaa !49
  %27 = tail call i32 @rename(ptr noundef nonnull %23, ptr noundef %26) #13
  %28 = icmp sgt i32 %27, -1
  br i1 %28, label %finalize_write.exit, label %29

29:                                               ; preds = %24
  %30 = getelementptr inbounds nuw i8, ptr %3, i64 72
  %31 = load ptr, ptr %30, align 8, !tbaa !50
  %32 = tail call ptr @strerror(i32 noundef 0) #13
  %33 = tail call i32 (ptr, i32, ptr, ...) %31(ptr noundef nonnull %3, i32 noundef 5, ptr noundef nonnull @.str.22, ptr noundef %32) #13
  br label %finalize_write.exit

finalize_write.exit:                              ; preds = %29, %24, %.critedge.i, %18, %16, %9, %4, %4
  %.1 = phi i32 [ 0, %4 ], [ 0, %4 ], [ %33, %29 ], [ 0, %9 ], [ 0, %18 ], [ 0, %16 ], [ 0, %.critedge.i ], [ 0, %24 ]
  %34 = getelementptr inbounds nuw i8, ptr %3, i64 144
  %35 = load ptr, ptr %34, align 8, !tbaa !47
  %.not27 = icmp eq ptr %35, null
  br i1 %.not27, label %39, label %36

36:                                               ; preds = %finalize_write.exit
  %37 = getelementptr inbounds nuw i8, ptr %3, i64 136
  %38 = load ptr, ptr %37, align 8, !tbaa !44
  tail call void %35(ptr noundef nonnull %3, ptr noundef %38, i32 noundef %7) #13
  br label %39

39:                                               ; preds = %36, %finalize_write.exit
  tail call void @internal_exr_destroy_context(ptr noundef nonnull %3) #13
  br label %40

40:                                               ; preds = %39, %2
  %.017 = phi i32 [ %.1, %39 ], [ 0, %2 ]
  store ptr null, ptr %0, align 8, !tbaa !3
  br label %41

41:                                               ; preds = %1, %40
  %.018 = phi i32 [ %.017, %40 ], [ 2, %1 ]
  ret i32 %.018
}